target datalayout = "e-m:e-p270:32:32-p271:32:32-p272:64:64-i64:64-i128:128-f80:128-n8:16:32:64-S128"
target triple = "x86_64-unknown-linux-gnu"

%"class.proxygen::AsyncTimeoutSet::Callback" = type { ptr, %"class.std::shared_ptr", ptr, ptr, ptr, %"class.std::chrono::duration" }
%"class.std::shared_ptr" = type { %"class.std::__shared_ptr" }
%"class.std::__shared_ptr" = type { ptr, %"class.std::__shared_count" }
%"class.std::__shared_count" = type { ptr }
%"class.std::chrono::duration" = type { i64 }
%"class.proxygen::AsyncTimeoutSet" = type <{ %"class.folly::AsyncTimeout", %"class.folly::DelayedDestruction.base", [3 x i8], ptr, ptr, ptr, %"class.std::chrono::duration", %"class.std::chrono::duration", i8, [7 x i8] }>
%"class.folly::AsyncTimeout" = type { ptr, %"class.folly::EventBaseEvent", ptr, %"class.std::shared_ptr" }
%"class.folly::EventBaseEvent" = type { %struct.event, ptr, ptr, ptr, %"struct.folly::EventCallback" }
%struct.event = type { %struct.event_callback, %union.anon.0, i32, i16, i16, ptr, %union.anon.2, %struct.timeval }
%struct.event_callback = type { %struct.anon, i16, i8, i8, %union.anon, ptr }
%struct.anon = type { ptr, ptr }
%union.anon = type { ptr }
%union.anon.0 = type { %struct.anon.1 }
%struct.anon.1 = type { ptr, ptr }
%union.anon.2 = type { %struct.anon.3 }
%struct.anon.3 = type { %struct.anon.4, %struct.timeval }
%struct.anon.4 = type { ptr, ptr }
%struct.timeval = type { i64, i64 }
%"struct.folly::EventCallback" = type { i32, %union.anon.7 }
%union.anon.7 = type { ptr }
%"class.folly::DelayedDestruction.base" = type { %"class.folly::DelayedDestructionBase.base", i8 }
%"class.folly::DelayedDestructionBase.base" = type <{ ptr, i32 }>
%"class.folly::DelayedDestruction" = type { %"class.folly::DelayedDestructionBase.base", i8, [3 x i8] }
%"class.folly::DelayedDestructionBase" = type <{ ptr, i32, [4 x i8] }>

; Function Attrs: mustprogress nounwind uwtable
define linkonce_odr noundef i32 @_ZNK5folly22DelayedDestructionBase23getDestructorGuardCountEv(ptr noundef nonnull align 8 dereferenceable(12) %this) #2 comdat align 2 {
entry:
  %this.addr = alloca ptr, align 8
  store ptr %this, ptr %this.addr, align 8
  %this1 = load ptr, ptr %this.addr, align 8
  %guardCount_ = getelementptr inbounds %"class.folly::DelayedDestructionBase", ptr %this1, i32 0, i32 1
  %0 = load i32, ptr %guardCount_, align 8
  ret i32 %0
}

; Function Attrs: mustprogress uwtable
define void @_ZN8proxygen15AsyncTimeoutSet8Callback17cancelTimeoutImplEv(ptr noundef nonnull align 8 dereferenceable(56) %this) #0 align 2 {
entry:
  %this.addr = alloca ptr, align 8
  %ref.tmp = alloca %"class.std::chrono::duration", align 8
  store ptr %this, ptr %this.addr, align 8
  %this1 = load ptr, ptr %this.addr, align 8
  %next_ = getelementptr inbounds %"class.proxygen::AsyncTimeoutSet::Callback", ptr %this1, i32 0, i32 4
  %0 = load ptr, ptr %next_, align 8
  %cmp = icmp eq ptr %0, null
  br i1 %cmp, label %if.then, label %if.else

if.then:                                          ; preds = %entry
  %prev_ = getelementptr inbounds %"class.proxygen::AsyncTimeoutSet::Callback", ptr %this1, i32 0, i32 3
  %1 = load ptr, ptr %prev_, align 8
  %timeoutSet_ = getelementptr inbounds %"class.proxygen::AsyncTimeoutSet::Callback", ptr %this1, i32 0, i32 2
  %2 = load ptr, ptr %timeoutSet_, align 8
  %tail_ = getelementptr inbounds %"class.proxygen::AsyncTimeoutSet", ptr %2, i32 0, i32 5
  store ptr %1, ptr %tail_, align 8
  br label %if.end

if.else:                                          ; preds = %entry
  %prev_2 = getelementptr inbounds %"class.proxygen::AsyncTimeoutSet::Callback", ptr %this1, i32 0, i32 3
  %3 = load ptr, ptr %prev_2, align 8
  %next_3 = getelementptr inbounds %"class.proxygen::AsyncTimeoutSet::Callback", ptr %this1, i32 0, i32 4
  %4 = load ptr, ptr %next_3, align 8
  %prev_4 = getelementptr inbounds %"class.proxygen::AsyncTimeoutSet::Callback", ptr %4, i32 0, i32 3
  store ptr %3, ptr %prev_4, align 8
  br label %if.end

if.end:                                           ; preds = %if.else, %if.then
  %prev_5 = getelementptr inbounds %"class.proxygen::AsyncTimeoutSet::Callback", ptr %this1, i32 0, i32 3
  %5 = load ptr, ptr %prev_5, align 8
  %cmp6 = icmp eq ptr %5, null
  br i1 %cmp6, label %if.then7, label %if.else11

if.then7:                                         ; preds = %if.end
  %next_8 = getelementptr inbounds %"class.proxygen::AsyncTimeoutSet::Callback", ptr %this1, i32 0, i32 4
  %6 = load ptr, ptr %next_8, align 8
  %timeoutSet_9 = getelementptr inbounds %"class.proxygen::AsyncTimeoutSet::Callback", ptr %this1, i32 0, i32 2
  %7 = load ptr, ptr %timeoutSet_9, align 8
  %head_ = getelementptr inbounds %"class.proxygen::AsyncTimeoutSet", ptr %7, i32 0, i32 4
  store ptr %6, ptr %head_, align 8
  %timeoutSet_10 = getelementptr inbounds %"class.proxygen::AsyncTimeoutSet::Callback", ptr %this1, i32 0, i32 2
  %8 = load ptr, ptr %timeoutSet_10, align 8
  call void @_ZN8proxygen15AsyncTimeoutSet11headChangedEv(ptr noundef nonnull align 8 dereferenceable(249) %8)
  br label %if.end15

if.else11:                                        ; preds = %if.end
  %next_12 = getelementptr inbounds %"class.proxygen::AsyncTimeoutSet::Callback", ptr %this1, i32 0, i32 4
  %9 = load ptr, ptr %next_12, align 8
  %prev_13 = getelementptr inbounds %"class.proxygen::AsyncTimeoutSet::Callback", ptr %this1, i32 0, i32 3
  %10 = load ptr, ptr %prev_13, align 8
  %next_14 = getelementptr inbounds %"class.proxygen::AsyncTimeoutSet::Callback", ptr %10, i32 0, i32 4
  store ptr %9, ptr %next_14, align 8
  br label %if.end15

if.end15:                                         ; preds = %if.else11, %if.then7
  %timeoutSet_16 = getelementptr inbounds %"class.proxygen::AsyncTimeoutSet::Callback", ptr %this1, i32 0, i32 2
  store ptr null, ptr %timeoutSet_16, align 8
  %prev_17 = getelementptr inbounds %"class.proxygen::AsyncTimeoutSet::Callback", ptr %this1, i32 0, i32 3
  store ptr null, ptr %prev_17, align 8
  %next_18 = getelementptr inbounds %"class.proxygen::AsyncTimeoutSet::Callback", ptr %this1, i32 0, i32 4
  store ptr null, ptr %next_18, align 8
  call void @llvm.memset.p0.i64(ptr align 8 %ref.tmp, i8 0, i64 8, i1 false)
  %expiration_ = getelementptr inbounds %"class.proxygen::AsyncTimeoutSet::Callback", ptr %this1, i32 0, i32 5
  call void @llvm.memcpy.p0.p0.i64(ptr align 8 %expiration_, ptr align 8 %ref.tmp, i64 8, i1 false)
  ret void
}

; Function Attrs: mustprogress uwtable
define linkonce_odr void @_ZN5folly18DelayedDestruction7destroyEv(ptr noundef nonnull align 8 dereferenceable(13) %this) unnamed_addr #0 comdat align 2 {
entry:
  %this.addr = alloca ptr, align 8
  store ptr %this, ptr %this.addr, align 8
  %this1 = load ptr, ptr %this.addr, align 8
  %call = call noundef i32 @_ZNK5folly22DelayedDestructionBase23getDestructorGuardCountEv(ptr noundef nonnull align 8 dereferenceable(12) %this1)
  %cmp = icmp ne i32 %call, 0
  br i1 %cmp, label %if.then, label %if.else

if.then:                                          ; preds = %entry
  %destroyPending_ = getelementptr inbounds %"class.folly::DelayedDestruction", ptr %this1, i32 0, i32 1
  store i8 1, ptr %destroyPending_, align 4
  br label %if.end

if.else:                                          ; preds = %entry
  %vtable = load ptr, ptr %this1, align 8
  %vfn = getelementptr inbounds ptr, ptr %vtable, i64 2
  %0 = load ptr, ptr %vfn, align 8
  call void %0(ptr noundef nonnull align 8 dereferenceable(13) %this1, i1 noundef zeroext false)
  br label %if.end

if.end:                                           ; preds = %if.else, %if.then
  ret void
}

; Function Attrs: mustprogress uwtable
define linkonce_odr void @_ZN8proxygen15AsyncTimeoutSet8Callback13cancelTimeoutEv(ptr noundef nonnull align 8 dereferenceable(56) %this) #0 comdat align 2 {
entry:
  %this.addr = alloca ptr, align 8
  store ptr %this, ptr %this.addr, align 8
  %this1 = load ptr, ptr %this.addr, align 8
  %timeoutSet_ = getelementptr inbounds %"class.proxygen::AsyncTimeoutSet::Callback", ptr %this1, i32 0, i32 2
  %0 = load ptr, ptr %timeoutSet_, align 8
  %cmp = icmp eq ptr %0, null
  br i1 %cmp, label %if.then, label %if.end

if.then:                                          ; preds = %entry
  br label %return

if.end:                                           ; preds = %entry
  call void @_ZN8proxygen15AsyncTimeoutSet8Callback17cancelTimeoutImplEv(ptr noundef nonnull align 8 dereferenceable(56) %this1)
  br label %return

return:                                           ; preds = %if.end, %if.then
  ret void
}

; Function Attrs: mustprogress uwtable
define void @_ZN8proxygen15AsyncTimeoutSet7destroyEv(ptr noundef nonnull align 8 dereferenceable(249) %this) unnamed_addr #0 align 2 {
entry:
  %this.addr = alloca ptr, align 8
  store ptr %this, ptr %this.addr, align 8
  %this1 = load ptr, ptr %this.addr, align 8
  br label %while.cond

while.cond:                                       ; preds = %while.body, %entry
  %tail_ = getelementptr inbounds %"class.proxygen::AsyncTimeoutSet", ptr %this1, i32 0, i32 5
  %0 = load ptr, ptr %tail_, align 8
  %cmp = icmp ne ptr %0, null
  br i1 %cmp, label %while.body, label %while.end

while.body:                                       ; preds = %while.cond
  %tail_2 = getelementptr inbounds %"class.proxygen::AsyncTimeoutSet", ptr %this1, i32 0, i32 5
  %1 = load ptr, ptr %tail_2, align 8
  call void @_ZN8proxygen15AsyncTimeoutSet8Callback13cancelTimeoutEv(ptr noundef nonnull align 8 dereferenceable(56) %1)
  br label %while.cond, !llvm.loop !5

while.end:                                        ; preds = %while.cond
  %add.ptr = getelementptr inbounds i8, ptr %this1, i64 192
  call void @_ZN5folly18DelayedDestruction7destroyEv(ptr noundef nonnull align 8 dereferenceable(13) %add.ptr)
  ret void
}