; Function Attrs: mustprogress uwtable
define void @_ZN8proxygen15AsyncTimeoutSet7destroyEv(ptr noundef nonnull align 8 dereferenceable(249) %this) unnamed_addr #6 align 2 {
entry:
  %tail_ = getelementptr inbounds i8, ptr %this, i64 224
  %0 = load ptr, ptr %tail_, align 8
  %cmp.not2 = icmp eq ptr %0, null
  br i1 %cmp.not2, label %while.end, label %while.body

while.body:                                       ; preds = %entry, %_ZN8proxygen15AsyncTimeoutSet8Callback13cancelTimeoutEv.exit
  %1 = phi ptr [ %8, %_ZN8proxygen15AsyncTimeoutSet8Callback13cancelTimeoutEv.exit ], [ %0, %entry ]
  %timeoutSet_.i = getelementptr inbounds i8, ptr %1, i64 24
  %2 = load ptr, ptr %timeoutSet_.i, align 8
  %cmp.i = icmp eq ptr %2, null
  br i1 %cmp.i, label %_ZN8proxygen15AsyncTimeoutSet8Callback13cancelTimeoutEv.exit, label %if.end.i

if.end.i:                                         ; preds = %while.body
  %next_.i.i = getelementptr inbounds i8, ptr %1, i64 40
  %3 = load ptr, ptr %next_.i.i, align 8
  %cmp.i.i = icmp eq ptr %3, null
  %prev_.i.i = getelementptr inbounds i8, ptr %1, i64 32
  %4 = load ptr, ptr %prev_.i.i, align 8
  %prev_4.i.i = getelementptr inbounds i8, ptr %3, i64 32
  %tail_.i.i = getelementptr inbounds i8, ptr %2, i64 224
  %prev_4.sink.i.i = select i1 %cmp.i.i, ptr %tail_.i.i, ptr %prev_4.i.i
  store ptr %4, ptr %prev_4.sink.i.i, align 8
  %cmp6.i.i = icmp eq ptr %4, null
  %5 = load ptr, ptr %next_.i.i, align 8
  br i1 %cmp6.i.i, label %if.then7.i.i, label %if.else11.i.i

if.then7.i.i:                                     ; preds = %if.end.i
  %6 = load ptr, ptr %timeoutSet_.i, align 8
  %head_.i.i = getelementptr inbounds i8, ptr %6, i64 216
  store ptr %5, ptr %head_.i.i, align 8
  %7 = load ptr, ptr %timeoutSet_.i, align 8
  tail call void @_ZN8proxygen15AsyncTimeoutSet11headChangedEv(ptr noundef nonnull align 8 dereferenceable(249) %7)
  br label %_ZN8proxygen15AsyncTimeoutSet8Callback17cancelTimeoutImplEv.exit.i

if.else11.i.i:                                    ; preds = %if.end.i
  %next_14.i.i = getelementptr inbounds i8, ptr %4, i64 40
  store ptr %5, ptr %next_14.i.i, align 8
  br label %_ZN8proxygen15AsyncTimeoutSet8Callback17cancelTimeoutImplEv.exit.i

_ZN8proxygen15AsyncTimeoutSet8Callback17cancelTimeoutImplEv.exit.i: ; preds = %if.else11.i.i, %if.then7.i.i
  tail call void @llvm.memset.p0.i64(ptr noundef nonnull align 8 dereferenceable(32) %timeoutSet_.i, i8 0, i64 32, i1 false)
  %.pre = load ptr, ptr %tail_, align 8
  br label %_ZN8proxygen15AsyncTimeoutSet8Callback13cancelTimeoutEv.exit

_ZN8proxygen15AsyncTimeoutSet8Callback13cancelTimeoutEv.exit: ; preds = %while.body, %_ZN8proxygen15AsyncTimeoutSet8Callback17cancelTimeoutImplEv.exit.i
  %8 = phi ptr [ %1, %while.body ], [ %.pre, %_ZN8proxygen15AsyncTimeoutSet8Callback17cancelTimeoutImplEv.exit.i ]
  %cmp.not = icmp eq ptr %8, null
  br i1 %cmp.not, label %while.end, label %while.body, !llvm.loop !8

while.end:                                        ; preds = %_ZN8proxygen15AsyncTimeoutSet8Callback13cancelTimeoutEv.exit, %entry
  %guardCount_.i.i = getelementptr inbounds i8, ptr %this, i64 200
  %9 = load i32, ptr %guardCount_.i.i, align 8
  %cmp.not.i = icmp eq i32 %9, 0
  br i1 %cmp.not.i, label %if.else.i, label %if.then.i

if.then.i:                                        ; preds = %while.end
  %destroyPending_.i = getelementptr inbounds i8, ptr %this, i64 204
  store i8 1, ptr %destroyPending_.i, align 4
  br label %_ZN5folly18DelayedDestruction7destroyEv.exit

if.else.i:                                        ; preds = %while.end
  %add.ptr = getelementptr inbounds i8, ptr %this, i64 192
  %vtable.i = load ptr, ptr %add.ptr, align 8
  %vfn.i = getelementptr inbounds i8, ptr %vtable.i, i64 16
  %10 = load ptr, ptr %vfn.i, align 8
  tail call void %10(ptr noundef nonnull align 8 dereferenceable(13) %add.ptr, i1 noundef zeroext false)
  br label %_ZN5folly18DelayedDestruction7destroyEv.exit

_ZN5folly18DelayedDestruction7destroyEv.exit:     ; preds = %if.then.i, %if.else.i
  ret void
}